; Function Attrs: mustprogress nounwind uwtable
define hidden void @_ZN6hermes3sem15FunctionContext20addHoistingCandidateEPNS_6ESTree23FunctionDeclarationNodeE(ptr noundef nonnull align 8 dereferenceable(200) %this, ptr noundef %funDecl) local_unnamed_addr #0 align 2 {
entry:
  %_id = getelementptr inbounds nuw i8, ptr %funDecl, i64 72
  %0 = load ptr, ptr %_id, align 8
  %strictMode.i = getelementptr inbounds nuw i8, ptr %this, i64 80
  %1 = load i8, ptr %strictMode.i, align 8
  %tobool.i = trunc i8 %1 to i1
  br i1 %tobool.i, label %if.end, label %_ZNK6hermes3sem15FunctionContext23functionHoistingEnabledEv.exit

_ZNK6hermes3sem15FunctionContext23functionHoistingEnabledEv.exit: ; preds = %entry
  %2 = load ptr, ptr %this, align 8
  %3 = load ptr, ptr %2, align 8
  %enableBlockScoping.i.i = getelementptr inbounds nuw i8, ptr %3, i64 249
  %4 = load i8, ptr %enableBlockScoping.i.i, align 1
  %tobool.i.i = trunc i8 %4 to i1
  br i1 %tobool.i.i, label %if.then, label %if.end

if.then:                                          ; preds = %_ZNK6hermes3sem15FunctionContext23functionHoistingEnabledEv.exit
  %hoistingCandidates_ = getelementptr inbounds nuw i8, ptr %this, i64 152
  %_name = getelementptr inbounds nuw i8, ptr %0, i64 48
  %call3 = tail call noundef nonnull align 8 dereferenceable(48) ptr @_ZN4llvh9MapVectorIPKN6hermes12UniqueStringENS_11SmallVectorIPNS1_6ESTree23FunctionDeclarationNodeELj4EEENS_8DenseMapIS4_jNS_12DenseMapInfoIS4_EENS_6detail12DenseMapPairIS4_jEEEESt6vectorISt4pairIS4_S9_ESaISJ_EEEixERKS4_(ptr noundef nonnull align 8 dereferenceable(48) %hoistingCandidates_, ptr noundef nonnull align 8 dereferenceable(8) %_name)
  %Size.i.i = getelementptr inbounds nuw i8, ptr %call3, i64 8
  %5 = load i32, ptr %Size.i.i, align 8
  %Capacity.i.i = getelementptr inbounds nuw i8, ptr %call3, i64 12
  %6 = load i32, ptr %Capacity.i.i, align 4
  %cmp.not.i = icmp ult i32 %5, %6
  br i1 %cmp.not.i, label %_ZN4llvh15SmallVectorImplIPN6hermes6ESTree23FunctionDeclarationNodeEE12emplace_backIJRS4_EEEvDpOT_.exit, label %if.then.i

if.then.i:                                        ; preds = %if.then
  %add.ptr.i.i.i.i = getelementptr inbounds nuw i8, ptr %call3, i64 16
  tail call void @_ZN4llvh15SmallVectorBase8grow_podEPvmm(ptr noundef nonnull align 8 dereferenceable(16) %call3, ptr noundef nonnull %add.ptr.i.i.i.i, i64 noundef 0, i64 noundef 8) #21
  %.pre.i = load i32, ptr %Size.i.i, align 8
  br label %_ZN4llvh15SmallVectorImplIPN6hermes6ESTree23FunctionDeclarationNodeEE12emplace_backIJRS4_EEEvDpOT_.exit

_ZN4llvh15SmallVectorImplIPN6hermes6ESTree23FunctionDeclarationNodeEE12emplace_backIJRS4_EEEvDpOT_.exit: ; preds = %if.then, %if.then.i
  %7 = phi i32 [ %.pre.i, %if.then.i ], [ %5, %if.then ]
  %8 = load ptr, ptr %call3, align 8
  %conv.i3.i = zext i32 %7 to i64
  %add.ptr.i.i = getelementptr inbounds nuw ptr, ptr %8, i64 %conv.i3.i
  store ptr %funDecl, ptr %add.ptr.i.i, align 8
  %9 = load i32, ptr %Size.i.i, align 8
  %add.i = add i32 %9, 1
  store i32 %add.i, ptr %Size.i.i, align 8
  br label %if.end

if.end:                                           ; preds = %entry, %_ZN4llvh15SmallVectorImplIPN6hermes6ESTree23FunctionDeclarationNodeEE12emplace_backIJRS4_EEEvDpOT_.exit, %_ZNK6hermes3sem15FunctionContext23functionHoistingEnabledEv.exit
  %scopedClosures = getelementptr inbounds nuw i8, ptr %this, i64 56
  %10 = load ptr, ptr %scopedClosures, align 8
  %Size.i.i1 = getelementptr inbounds nuw i8, ptr %10, i64 8
  %11 = load i32, ptr %Size.i.i1, align 8
  %Capacity.i.i2 = getelementptr inbounds nuw i8, ptr %10, i64 12
  %12 = load i32, ptr %Capacity.i.i2, align 4
  %cmp.not.i3 = icmp ult i32 %11, %12
  br i1 %cmp.not.i3, label %_ZN4llvh15SmallVectorImplIPN6hermes6ESTree23FunctionDeclarationNodeEE12emplace_backIJRS4_EEEvDpOT_.exit10, label %if.then.i4

if.then.i4:                                       ; preds = %if.end
  %add.ptr.i.i.i.i5 = getelementptr inbounds nuw i8, ptr %10, i64 16
  tail call void @_ZN4llvh15SmallVectorBase8grow_podEPvmm(ptr noundef nonnull align 8 dereferenceable(16) %10, ptr noundef nonnull %add.ptr.i.i.i.i5, i64 noundef 0, i64 noundef 8) #21
  %.pre.i6 = load i32, ptr %Size.i.i1, align 8
  br label %_ZN4llvh15SmallVectorImplIPN6hermes6ESTree23FunctionDeclarationNodeEE12emplace_backIJRS4_EEEvDpOT_.exit10

_ZN4llvh15SmallVectorImplIPN6hermes6ESTree23FunctionDeclarationNodeEE12emplace_backIJRS4_EEEvDpOT_.exit10: ; preds = %if.end, %if.then.i4
  %13 = phi i32 [ %.pre.i6, %if.then.i4 ], [ %11, %if.end ]
  %14 = load ptr, ptr %10, align 8
  %conv.i3.i7 = zext i32 %13 to i64
  %add.ptr.i.i8 = getelementptr inbounds nuw ptr, ptr %14, i64 %conv.i3.i7
  store ptr %funDecl, ptr %add.ptr.i.i8, align 8
  %15 = load i32, ptr %Size.i.i1, align 8
  %add.i9 = add i32 %15, 1
  store i32 %add.i9, ptr %Size.i.i1, align 8
  ret void
}